target datalayout = "e-m:e-p270:32:32-p271:32:32-p272:64:64-i64:64-i128:128-f80:128-n8:16:32:64-S128"
target triple = "x86_64-pc-linux-gnu"

@stderr = external global ptr, align 8
@.str.1 = private unnamed_addr constant [16 x i8] c"too many vals.\0A\00", align 1

; Function Attrs: nounwind uwtable
define void @Ptngc_comp_from_lz77(ptr noundef %0, i32 noundef %1, ptr noundef %2, i32 noundef %3, ptr noundef %4, i32 noundef %5, ptr noundef %6, i32 noundef %7) #0 {
  %9 = alloca ptr, align 8
  %10 = alloca i32, align 4
  %11 = alloca ptr, align 8
  %12 = alloca i32, align 4
  %13 = alloca ptr, align 8
  %14 = alloca i32, align 4
  %15 = alloca ptr, align 8
  %16 = alloca i32, align 4
  %17 = alloca i32, align 4
  %18 = alloca i32, align 4
  %19 = alloca i32, align 4
  %20 = alloca i32, align 4
  %21 = alloca i32, align 4
  %22 = alloca i32, align 4
  %23 = alloca i32, align 4
  %24 = alloca i32, align 4
  store ptr %0, ptr %9, align 8, !tbaa !3
  store i32 %1, ptr %10, align 4, !tbaa !8
  store ptr %2, ptr %11, align 8, !tbaa !3
  store i32 %3, ptr %12, align 4, !tbaa !8
  store ptr %4, ptr %13, align 8, !tbaa !3
  store i32 %5, ptr %14, align 4, !tbaa !8
  store ptr %6, ptr %15, align 8, !tbaa !3
  store i32 %7, ptr %16, align 4, !tbaa !8
  call void @llvm.lifetime.start.p0(i64 4, ptr %17) #5
  store i32 0, ptr %17, align 4, !tbaa !8
  call void @llvm.lifetime.start.p0(i64 4, ptr %18) #5
  store i32 0, ptr %18, align 4, !tbaa !8
  call void @llvm.lifetime.start.p0(i64 4, ptr %19) #5
  store i32 0, ptr %19, align 4, !tbaa !8
  call void @llvm.lifetime.start.p0(i64 4, ptr %20) #5
  store i32 0, ptr %20, align 4, !tbaa !8
  br label %25

25:                                               ; preds = %92, %8
  %26 = load i32, ptr %17, align 4, !tbaa !8
  %27 = load i32, ptr %16, align 4, !tbaa !8
  %28 = icmp slt i32 %26, %27
  br i1 %28, label %29, label %93

29:                                               ; preds = %25
  call void @llvm.lifetime.start.p0(i64 4, ptr %21) #5
  %30 = load ptr, ptr %9, align 8, !tbaa !3
  %31 = load i32, ptr %19, align 4, !tbaa !8
  %32 = add nsw i32 %31, 1
  store i32 %32, ptr %19, align 4, !tbaa !8
  %33 = sext i32 %31 to i64
  %34 = getelementptr inbounds i32, ptr %30, i64 %33
  %35 = load i32, ptr %34, align 4, !tbaa !8
  store i32 %35, ptr %21, align 4, !tbaa !8
  %36 = load i32, ptr %21, align 4, !tbaa !8
  %37 = icmp ult i32 %36, 2
  br i1 %37, label %38, label %84

38:                                               ; preds = %29
  call void @llvm.lifetime.start.p0(i64 4, ptr %22) #5
  store i32 1, ptr %22, align 4, !tbaa !8
  call void @llvm.lifetime.start.p0(i64 4, ptr %23) #5
  call void @llvm.lifetime.start.p0(i64 4, ptr %24) #5
  %39 = load ptr, ptr %11, align 8, !tbaa !3
  %40 = load i32, ptr %20, align 4, !tbaa !8
  %41 = add nsw i32 %40, 1
  store i32 %41, ptr %20, align 4, !tbaa !8
  %42 = sext i32 %40 to i64
  %43 = getelementptr inbounds i32, ptr %39, i64 %42
  %44 = load i32, ptr %43, align 4, !tbaa !8
  store i32 %44, ptr %24, align 4, !tbaa !8
  %45 = load i32, ptr %21, align 4, !tbaa !8
  %46 = icmp eq i32 %45, 1
  br i1 %46, label %47, label %54

47:                                               ; preds = %38
  %48 = load ptr, ptr %13, align 8, !tbaa !3
  %49 = load i32, ptr %18, align 4, !tbaa !8
  %50 = add nsw i32 %49, 1
  store i32 %50, ptr %18, align 4, !tbaa !8
  %51 = sext i32 %49 to i64
  %52 = getelementptr inbounds i32, ptr %48, i64 %51
  %53 = load i32, ptr %52, align 4, !tbaa !8
  store i32 %53, ptr %22, align 4, !tbaa !8
  br label %54

54:                                               ; preds = %47, %38
  store i32 0, ptr %23, align 4, !tbaa !8
  br label %55

55:                                               ; preds = %80, %54
  %56 = load i32, ptr %23, align 4, !tbaa !8
  %57 = load i32, ptr %24, align 4, !tbaa !8
  %58 = icmp slt i32 %56, %57
  br i1 %58, label %59, label %83

59:                                               ; preds = %55
  %60 = load ptr, ptr %15, align 8, !tbaa !3
  %61 = load i32, ptr %17, align 4, !tbaa !8
  %62 = load i32, ptr %22, align 4, !tbaa !8
  %63 = sub nsw i32 %61, %62
  %64 = sext i32 %63 to i64
  %65 = getelementptr inbounds i32, ptr %60, i64 %64
  %66 = load i32, ptr %65, align 4, !tbaa !8
  %67 = load ptr, ptr %15, align 8, !tbaa !3
  %68 = load i32, ptr %17, align 4, !tbaa !8
  %69 = sext i32 %68 to i64
  %70 = getelementptr inbounds i32, ptr %67, i64 %69
  store i32 %66, ptr %70, align 4, !tbaa !8
  %71 = load i32, ptr %17, align 4, !tbaa !8
  %72 = load i32, ptr %16, align 4, !tbaa !8
  %73 = icmp sge i32 %71, %72
  br i1 %73, label %74, label %77

74:                                               ; preds = %59
  %75 = load ptr, ptr @stderr, align 8, !tbaa !17
  %76 = call i32 (ptr, ptr, ...) @fprintf(ptr noundef %75, ptr noundef @.str.1) #5
  call void @exit(i32 noundef 1) #6
  unreachable

77:                                               ; preds = %59
  %78 = load i32, ptr %17, align 4, !tbaa !8
  %79 = add nsw i32 %78, 1
  store i32 %79, ptr %17, align 4, !tbaa !8
  br label %80

80:                                               ; preds = %77
  %81 = load i32, ptr %23, align 4, !tbaa !8
  %82 = add nsw i32 %81, 1
  store i32 %82, ptr %23, align 4, !tbaa !8
  br label %55, !llvm.loop !19

83:                                               ; preds = %55
  call void @llvm.lifetime.end.p0(i64 4, ptr %24) #5
  call void @llvm.lifetime.end.p0(i64 4, ptr %23) #5
  call void @llvm.lifetime.end.p0(i64 4, ptr %22) #5
  br label %92

84:                                               ; preds = %29
  %85 = load i32, ptr %21, align 4, !tbaa !8
  %86 = sub i32 %85, 2
  %87 = load ptr, ptr %15, align 8, !tbaa !3
  %88 = load i32, ptr %17, align 4, !tbaa !8
  %89 = add nsw i32 %88, 1
  store i32 %89, ptr %17, align 4, !tbaa !8
  %90 = sext i32 %88 to i64
  %91 = getelementptr inbounds i32, ptr %87, i64 %90
  store i32 %86, ptr %91, align 4, !tbaa !8
  br label %92

92:                                               ; preds = %84, %83
  call void @llvm.lifetime.end.p0(i64 4, ptr %21) #5
  br label %25, !llvm.loop !20

93:                                               ; preds = %25
  call void @llvm.lifetime.end.p0(i64 4, ptr %20) #5
  call void @llvm.lifetime.end.p0(i64 4, ptr %19) #5
  call void @llvm.lifetime.end.p0(i64 4, ptr %18) #5
  call void @llvm.lifetime.end.p0(i64 4, ptr %17) #5
  ret void
}