; Function Attrs: nofree nounwind uwtable
define void @Ptngc_comp_from_lz77(ptr noundef readonly captures(none) %0, i32 noundef %1, ptr noundef readonly captures(none) %2, i32 noundef %3, ptr noundef readonly captures(none) %4, i32 noundef %5, ptr noundef captures(none) %6, i32 noundef %7) local_unnamed_addr #3 {
  %9 = icmp sgt i32 %7, 0
  br i1 %9, label %.lr.ph41, label %._crit_edge

.lr.ph41:                                         ; preds = %8, %.loopexit
  %indvars.iv45 = phi i64 [ %indvars.iv.next46, %.loopexit ], [ 0, %8 ]
  %.040 = phi i32 [ %.2, %.loopexit ], [ 0, %8 ]
  %.02539 = phi i32 [ %.227, %.loopexit ], [ 0, %8 ]
  %.02838 = phi i32 [ %.129, %.loopexit ], [ 0, %8 ]
  %indvars.iv.next46 = add nuw nsw i64 %indvars.iv45, 1
  %10 = getelementptr inbounds nuw i32, ptr %0, i64 %indvars.iv45
  %11 = load i32, ptr %10, align 4, !tbaa !3
  %12 = icmp ult i32 %11, 2
  br i1 %12, label %13, label %38

13:                                               ; preds = %.lr.ph41
  %14 = add nsw i32 %.02838, 1
  %15 = sext i32 %.02838 to i64
  %16 = getelementptr inbounds i32, ptr %2, i64 %15
  %17 = load i32, ptr %16, align 4, !tbaa !3
  %18 = icmp eq i32 %11, 1
  br i1 %18, label %19, label %25

19:                                               ; preds = %13
  %20 = add nsw i32 %.02539, 1
  %21 = sext i32 %.02539 to i64
  %22 = getelementptr inbounds i32, ptr %4, i64 %21
  %23 = load i32, ptr %22, align 4, !tbaa !3
  %24 = sext i32 %23 to i64
  br label %25

25:                                               ; preds = %19, %13
  %.126 = phi i32 [ %20, %19 ], [ %.02539, %13 ]
  %.024 = phi i64 [ %24, %19 ], [ 1, %13 ]
  %26 = icmp sgt i32 %17, 0
  br i1 %26, label %.lr.ph.preheader, label %.loopexit

.lr.ph.preheader:                                 ; preds = %25
  %27 = sext i32 %.040 to i64
  %smax = tail call i32 @llvm.smax.i32(i32 %.040, i32 %7)
  %28 = sub i32 %smax, %.040
  br label %.lr.ph

.lr.ph:                                           ; preds = %.lr.ph.preheader, %36
  %indvars.iv = phi i64 [ %27, %.lr.ph.preheader ], [ %indvars.iv.next, %36 ]
  %.02335 = phi i32 [ 0, %.lr.ph.preheader ], [ %37, %36 ]
  %29 = sub nsw i64 %indvars.iv, %.024
  %30 = getelementptr inbounds i32, ptr %6, i64 %29
  %31 = load i32, ptr %30, align 4, !tbaa !3
  %32 = getelementptr inbounds i32, ptr %6, i64 %indvars.iv
  store i32 %31, ptr %32, align 4, !tbaa !3
  %exitcond.not = icmp eq i32 %.02335, %28
  br i1 %exitcond.not, label %33, label %36

33:                                               ; preds = %.lr.ph
  %34 = load ptr, ptr @stderr, align 8, !tbaa !14
  %35 = tail call i64 @fwrite(ptr nonnull @.str.1, i64 15, i64 1, ptr %34) #8
  tail call void @exit(i32 noundef 1) #9
  unreachable

36:                                               ; preds = %.lr.ph
  %indvars.iv.next = add nsw i64 %indvars.iv, 1
  %37 = add nuw nsw i32 %.02335, 1
  %exitcond44.not = icmp eq i32 %37, %17
  br i1 %exitcond44.not, label %.loopexit.loopexit, label %.lr.ph, !llvm.loop !17

38:                                               ; preds = %.lr.ph41
  %39 = add i32 %11, -2
  %40 = add nsw i32 %.040, 1
  %41 = sext i32 %.040 to i64
  %42 = getelementptr inbounds i32, ptr %6, i64 %41
  store i32 %39, ptr %42, align 4, !tbaa !3
  br label %.loopexit

.loopexit.loopexit:                               ; preds = %36
  %43 = trunc nsw i64 %indvars.iv.next to i32
  br label %.loopexit

.loopexit:                                        ; preds = %.loopexit.loopexit, %25, %38
  %.129 = phi i32 [ %.02838, %38 ], [ %14, %25 ], [ %14, %.loopexit.loopexit ]
  %.227 = phi i32 [ %.02539, %38 ], [ %.126, %25 ], [ %.126, %.loopexit.loopexit ]
  %.2 = phi i32 [ %40, %38 ], [ %.040, %25 ], [ %43, %.loopexit.loopexit ]
  %44 = icmp slt i32 %.2, %7
  br i1 %44, label %.lr.ph41, label %._crit_edge, !llvm.loop !18

._crit_edge:                                      ; preds = %.loopexit, %8
  ret void
}